target datalayout = "e-m:e-p270:32:32-p271:32:32-p272:64:64-i64:64-i128:128-f80:128-n8:16:32:64-S128"
target triple = "x86_64-pc-linux-gnu"

%struct.BlockIdData = type { i16, i16 }
%struct.ItemPointerData = type { %struct.BlockIdData, i16 }
%struct.GinBtreeData = type { ptr, ptr, ptr, ptr, ptr, ptr, ptr, ptr, ptr, i8, ptr, i32, ptr, i8, i8, i16, i64, i8, %struct.ItemPointerData }

; Function Attrs: nounwind uwtable
define internal void @ginPrepareDataScan(ptr noundef %0, ptr noundef %1, i32 noundef %2) #0 {
  %4 = alloca ptr, align 8
  %5 = alloca ptr, align 8
  %6 = alloca i32, align 4
  store ptr %0, ptr %4, align 8
  store ptr %1, ptr %5, align 8
  store i32 %2, ptr %6, align 4
  %7 = load ptr, ptr %4, align 8
  call void @llvm.memset.p0.i64(ptr align 8 %7, i8 0, i64 128, i1 false)
  %8 = load ptr, ptr %5, align 8
  %9 = load ptr, ptr %4, align 8
  %10 = getelementptr inbounds nuw %struct.GinBtreeData, ptr %9, i32 0, i32 10
  store ptr %8, ptr %10, align 8
  %11 = load i32, ptr %6, align 4
  %12 = load ptr, ptr %4, align 8
  %13 = getelementptr inbounds nuw %struct.GinBtreeData, ptr %12, i32 0, i32 11
  store i32 %11, ptr %13, align 8
  %14 = load ptr, ptr %4, align 8
  %15 = getelementptr inbounds nuw %struct.GinBtreeData, ptr %14, i32 0, i32 0
  store ptr @dataLocateItem, ptr %15, align 8
  %16 = load ptr, ptr %4, align 8
  %17 = getelementptr inbounds nuw %struct.GinBtreeData, ptr %16, i32 0, i32 1
  store ptr @dataGetLeftMostPage, ptr %17, align 8
  %18 = load ptr, ptr %4, align 8
  %19 = getelementptr inbounds nuw %struct.GinBtreeData, ptr %18, i32 0, i32 2
  store ptr @dataIsMoveRight, ptr %19, align 8
  %20 = load ptr, ptr %4, align 8
  %21 = getelementptr inbounds nuw %struct.GinBtreeData, ptr %20, i32 0, i32 3
  store ptr null, ptr %21, align 8
  %22 = load ptr, ptr %4, align 8
  %23 = getelementptr inbounds nuw %struct.GinBtreeData, ptr %22, i32 0, i32 4
  store ptr @dataFindChildPtr, ptr %23, align 8
  %24 = load ptr, ptr %4, align 8
  %25 = getelementptr inbounds nuw %struct.GinBtreeData, ptr %24, i32 0, i32 5
  store ptr @dataBeginPlaceToPage, ptr %25, align 8
  %26 = load ptr, ptr %4, align 8
  %27 = getelementptr inbounds nuw %struct.GinBtreeData, ptr %26, i32 0, i32 6
  store ptr @dataExecPlaceToPage, ptr %27, align 8
  %28 = load ptr, ptr %4, align 8
  %29 = getelementptr inbounds nuw %struct.GinBtreeData, ptr %28, i32 0, i32 8
  store ptr @ginDataFillRoot, ptr %29, align 8
  %30 = load ptr, ptr %4, align 8
  %31 = getelementptr inbounds nuw %struct.GinBtreeData, ptr %30, i32 0, i32 7
  store ptr @dataPrepareDownlink, ptr %31, align 8
  %32 = load ptr, ptr %4, align 8
  %33 = getelementptr inbounds nuw %struct.GinBtreeData, ptr %32, i32 0, i32 9
  store i8 1, ptr %33, align 8
  %34 = load ptr, ptr %4, align 8
  %35 = getelementptr inbounds nuw %struct.GinBtreeData, ptr %34, i32 0, i32 13
  store i8 0, ptr %35, align 8
  %36 = load ptr, ptr %4, align 8
  %37 = getelementptr inbounds nuw %struct.GinBtreeData, ptr %36, i32 0, i32 14
  store i8 0, ptr %37, align 1
  ret void
}

; Function Attrs: nounwind uwtable
define dso_local ptr @ginScanBeginPostingTree(ptr noundef %0, ptr noundef %1, i32 noundef %2) #0 {
  %4 = alloca ptr, align 8
  %5 = alloca ptr, align 8
  %6 = alloca i32, align 4
  %7 = alloca ptr, align 8
  store ptr %0, ptr %4, align 8
  store ptr %1, ptr %5, align 8
  store i32 %2, ptr %6, align 4
  call void @llvm.lifetime.start.p0(i64 8, ptr %7) #7
  %8 = load ptr, ptr %4, align 8
  %9 = load ptr, ptr %5, align 8
  %10 = load i32, ptr %6, align 4
  call void @ginPrepareDataScan(ptr noundef %8, ptr noundef %9, i32 noundef %10)
  %11 = load ptr, ptr %4, align 8
  %12 = getelementptr inbounds nuw %struct.GinBtreeData, ptr %11, i32 0, i32 13
  store i8 1, ptr %12, align 8
  %13 = load ptr, ptr %4, align 8
  %14 = call ptr @ginFindLeafPage(ptr noundef %13, i1 noundef zeroext true, i1 noundef zeroext false)
  store ptr %14, ptr %7, align 8
  %15 = load ptr, ptr %7, align 8
  call void @llvm.lifetime.end.p0(i64 8, ptr %7) #7
  ret ptr %15
}