; Function Attrs: nounwind uwtable
define dso_local ptr @ginScanBeginPostingTree(ptr noundef initializes((0, 128)) %0, ptr noundef %1, i32 noundef %2) local_unnamed_addr #0 {
  %4 = getelementptr inbounds nuw i8, ptr %0, i64 72
  tail call void @llvm.memset.p0.i64(ptr noundef nonnull align 8 dereferenceable(128) %4, i8 0, i64 56, i1 false)
  %5 = getelementptr inbounds nuw i8, ptr %0, i64 80
  store ptr %1, ptr %5, align 8
  %6 = getelementptr inbounds nuw i8, ptr %0, i64 88
  store i32 %2, ptr %6, align 8
  store ptr @dataLocateItem, ptr %0, align 8
  %7 = getelementptr inbounds nuw i8, ptr %0, i64 8
  store ptr @dataGetLeftMostPage, ptr %7, align 8
  %8 = getelementptr inbounds nuw i8, ptr %0, i64 16
  store ptr @dataIsMoveRight, ptr %8, align 8
  %9 = getelementptr inbounds nuw i8, ptr %0, i64 24
  store ptr null, ptr %9, align 8
  %10 = getelementptr inbounds nuw i8, ptr %0, i64 32
  store ptr @dataFindChildPtr, ptr %10, align 8
  %11 = getelementptr inbounds nuw i8, ptr %0, i64 40
  store ptr @dataBeginPlaceToPage, ptr %11, align 8
  %12 = getelementptr inbounds nuw i8, ptr %0, i64 48
  store ptr @dataExecPlaceToPage, ptr %12, align 8
  %13 = getelementptr inbounds nuw i8, ptr %0, i64 64
  store ptr @ginDataFillRoot, ptr %13, align 8
  %14 = getelementptr inbounds nuw i8, ptr %0, i64 56
  store ptr @dataPrepareDownlink, ptr %14, align 8
  store i8 1, ptr %4, align 8
  %15 = getelementptr inbounds nuw i8, ptr %0, i64 104
  store i8 1, ptr %15, align 8
  %16 = tail call ptr @ginFindLeafPage(ptr noundef nonnull %0, i1 noundef zeroext true, i1 noundef zeroext false) #11
  ret ptr %16
}